target datalayout = "e-m:e-p270:32:32-p271:32:32-p272:64:64-i64:64-i128:128-f80:128-n8:16:32:64-S128"
target triple = "x86_64-pc-linux-gnu"

; Function Attrs: nounwind uwtable
define internal void @get_pixels_16_c(ptr noalias noundef %0, ptr noundef %1, i64 noundef %2) #2 {
  %4 = alloca ptr, align 8
  %5 = alloca ptr, align 8
  %6 = alloca i64, align 8
  %7 = alloca i32, align 4
  store ptr %0, ptr %4, align 8, !tbaa !38
  store ptr %1, ptr %5, align 8, !tbaa !39
  store i64 %2, ptr %6, align 8, !tbaa !40
  call void @llvm.lifetime.start.p0(i64 4, ptr %7) #3
  store i32 0, ptr %7, align 4, !tbaa !31
  br label %8

8:                                                ; preds = %42, %3
  %9 = load i32, ptr %7, align 4, !tbaa !31
  %10 = icmp slt i32 %9, 8
  br i1 %10, label %12, label %11

11:                                               ; preds = %8
  call void @llvm.lifetime.end.p0(i64 4, ptr %7) #3
  br label %45

12:                                               ; preds = %8
  br label %13

13:                                               ; preds = %12
  %14 = load ptr, ptr %5, align 8, !tbaa !39
  %15 = load i32, ptr %7, align 4, !tbaa !31
  %16 = sext i32 %15 to i64
  %17 = load i64, ptr %6, align 8, !tbaa !40
  %18 = mul nsw i64 %16, %17
  %19 = getelementptr inbounds i8, ptr %14, i64 %18
  %20 = load i64, ptr %19, align 8, !tbaa !41
  %21 = load ptr, ptr %4, align 8, !tbaa !38
  %22 = load i32, ptr %7, align 4, !tbaa !31
  %23 = mul nsw i32 %22, 8
  %24 = sext i32 %23 to i64
  %25 = getelementptr inbounds i16, ptr %21, i64 %24
  store i64 %20, ptr %25, align 8, !tbaa !41
  %26 = load ptr, ptr %5, align 8, !tbaa !39
  %27 = load i32, ptr %7, align 4, !tbaa !31
  %28 = sext i32 %27 to i64
  %29 = load i64, ptr %6, align 8, !tbaa !40
  %30 = mul nsw i64 %28, %29
  %31 = getelementptr inbounds i8, ptr %26, i64 %30
  %32 = getelementptr inbounds i8, ptr %31, i64 8
  %33 = load i64, ptr %32, align 8, !tbaa !41
  %34 = load ptr, ptr %4, align 8, !tbaa !38
  %35 = load i32, ptr %7, align 4, !tbaa !31
  %36 = mul nsw i32 %35, 8
  %37 = sext i32 %36 to i64
  %38 = getelementptr inbounds i16, ptr %34, i64 %37
  %39 = getelementptr inbounds i8, ptr %38, i64 8
  store i64 %33, ptr %39, align 8, !tbaa !41
  br label %40

40:                                               ; preds = %13
  br label %41

41:                                               ; preds = %40
  br label %42

42:                                               ; preds = %41
  %43 = load i32, ptr %7, align 4, !tbaa !31
  %44 = add nsw i32 %43, 1
  store i32 %44, ptr %7, align 4, !tbaa !31
  br label %8, !llvm.loop !46

45:                                               ; preds = %11
  ret void
}