; Function Attrs: nofree norecurse nosync nounwind memory(argmem: readwrite) uwtable
define internal void @get_pixels_16_c(ptr noalias noundef writeonly captures(none) %0, ptr noundef readonly captures(none) %1, i64 noundef %2) #1 {
  br label %5

4:                                                ; preds = %5
  ret void

5:                                                ; preds = %3, %5
  %indvars.iv = phi i64 [ 0, %3 ], [ %indvars.iv.next, %5 ]
  %6 = mul nsw i64 %2, %indvars.iv
  %7 = getelementptr inbounds i8, ptr %1, i64 %6
  %8 = load i64, ptr %7, align 8, !tbaa !33
  %.idx = shl nuw nsw i64 %indvars.iv, 4
  %9 = getelementptr inbounds nuw i8, ptr %0, i64 %.idx
  store i64 %8, ptr %9, align 8, !tbaa !33
  %10 = getelementptr inbounds nuw i8, ptr %7, i64 8
  %11 = load i64, ptr %10, align 8, !tbaa !33
  %12 = getelementptr inbounds nuw i8, ptr %9, i64 8
  store i64 %11, ptr %12, align 8, !tbaa !33
  %indvars.iv.next = add nuw nsw i64 %indvars.iv, 1
  %exitcond.not = icmp eq i64 %indvars.iv.next, 8
  br i1 %exitcond.not, label %4, label %5, !llvm.loop !38
}